; Function Attrs: nounwind uwtable
define hidden noalias noundef ptr @lexbor_mraw_free(ptr nocapture noundef %0, ptr noundef %1) local_unnamed_addr #0 {
  %3 = getelementptr i8, ptr %1, i64 -8
  %.val = load i64, ptr %3, align 8
  %4 = getelementptr inbounds i8, ptr %0, i64 8
  %5 = load ptr, ptr %4, align 8
  %6 = getelementptr inbounds i8, ptr %5, i64 8
  %7 = tail call ptr @lexbor_bst_insert(ptr noundef %5, ptr noundef nonnull %6, i64 noundef %.val, ptr noundef %1) #7
  %8 = getelementptr inbounds i8, ptr %0, i64 16
  %9 = load i64, ptr %8, align 8
  %10 = add i64 %9, -1
  store i64 %10, ptr %8, align 8
  ret ptr null
}